target datalayout = "e-m:e-p270:32:32-p271:32:32-p272:64:64-i64:64-i128:128-f80:128-n8:16:32:64-S128"
target triple = "x86_64-unknown-linux-gnu"

%class.b2World = type <{ %class.b2BlockAllocator, %class.b2StackAllocator, %class.b2ContactManager, ptr, ptr, i32, i32, %struct.b2Vec2, i8, [7 x i8], ptr, ptr, float, i8, i8, i8, i8, i8, i8, i8, i8, %struct.b2Profile, [4 x i8] }>
%class.b2BlockAllocator = type { ptr, i32, i32, [14 x ptr] }
%class.b2StackAllocator = type <{ [102400 x i8], i32, i32, i32, [4 x i8], [32 x %struct.b2StackEntry], i32, [4 x i8] }>
%struct.b2StackEntry = type { ptr, i32, i8 }
%class.b2ContactManager = type { %class.b2BroadPhase, ptr, i32, ptr, ptr, ptr }
%class.b2BroadPhase = type <{ %class.b2DynamicTree, i32, [4 x i8], ptr, i32, i32, ptr, i32, i32, i32, [4 x i8] }>
%class.b2DynamicTree = type { i32, ptr, i32, i32, i32, i32 }
%struct.b2Vec2 = type { float, float }
%struct.b2Profile = type { float, float, float, float, float, float, float, float }
%class.b2Body = type { i32, i16, i32, %struct.b2Transform, %struct.b2Sweep, %struct.b2Vec2, float, %struct.b2Vec2, float, ptr, ptr, ptr, ptr, i32, ptr, ptr, float, float, float, float, float, float, float, float, %struct.b2BodyUserData }
%struct.b2Transform = type { %struct.b2Vec2, %struct.b2Rot }
%struct.b2Rot = type { float, float }
%struct.b2Sweep = type { %struct.b2Vec2, %struct.b2Vec2, %struct.b2Vec2, float, float, float }
%struct.b2BodyUserData = type { i64 }

; Function Attrs: mustprogress nounwind uwtable
define linkonce_odr hidden noundef ptr @_ZN6b2Body7GetNextEv(ptr noundef nonnull align 8 dereferenceable(184) %this) #5 comdat align 2 {
entry:
  %this.addr = alloca ptr, align 8
  store ptr %this, ptr %this.addr, align 8
  %this1 = load ptr, ptr %this.addr, align 8
  %m_next = getelementptr inbounds %class.b2Body, ptr %this1, i32 0, i32 11
  %0 = load ptr, ptr %m_next, align 8
  ret ptr %0
}

; Function Attrs: mustprogress nounwind uwtable
define linkonce_odr hidden void @_ZN6b2Vec27SetZeroEv(ptr noundef nonnull align 4 dereferenceable(8) %this) #5 comdat align 2 {
entry:
  %this.addr = alloca ptr, align 8
  store ptr %this, ptr %this.addr, align 8
  %this1 = load ptr, ptr %this.addr, align 8
  %x = getelementptr inbounds %struct.b2Vec2, ptr %this1, i32 0, i32 0
  store float 0.000000e+00, ptr %x, align 4
  %y = getelementptr inbounds %struct.b2Vec2, ptr %this1, i32 0, i32 1
  store float 0.000000e+00, ptr %y, align 4
  ret void
}

; Function Attrs: mustprogress uwtable
define void @_ZN7b2World11ClearForcesEv(ptr noundef nonnull align 8 dereferenceable(103284) %this) #0 align 2 {
entry:
  %this.addr = alloca ptr, align 8
  %body = alloca ptr, align 8
  store ptr %this, ptr %this.addr, align 8
  %this1 = load ptr, ptr %this.addr, align 8
  %m_bodyList = getelementptr inbounds %class.b2World, ptr %this1, i32 0, i32 3
  %0 = load ptr, ptr %m_bodyList, align 8
  store ptr %0, ptr %body, align 8
  br label %for.cond

for.cond:                                         ; preds = %for.inc, %entry
  %1 = load ptr, ptr %body, align 8
  %tobool = icmp ne ptr %1, null
  br i1 %tobool, label %for.body, label %for.end

for.body:                                         ; preds = %for.cond
  %2 = load ptr, ptr %body, align 8
  %m_force = getelementptr inbounds %class.b2Body, ptr %2, i32 0, i32 7
  call void @_ZN6b2Vec27SetZeroEv(ptr noundef nonnull align 4 dereferenceable(8) %m_force)
  %3 = load ptr, ptr %body, align 8
  %m_torque = getelementptr inbounds %class.b2Body, ptr %3, i32 0, i32 8
  store float 0.000000e+00, ptr %m_torque, align 4
  br label %for.inc

for.inc:                                          ; preds = %for.body
  %4 = load ptr, ptr %body, align 8
  %call = call noundef ptr @_ZN6b2Body7GetNextEv(ptr noundef nonnull align 8 dereferenceable(184) %4)
  store ptr %call, ptr %body, align 8
  br label %for.cond, !llvm.loop !30

for.end:                                          ; preds = %for.cond
  ret void
}