; Function Attrs: mustprogress nofree norecurse nosync nounwind memory(readwrite, inaccessiblemem: none) uwtable
define void @_ZN7b2World11ClearForcesEv(ptr noundef nonnull readonly align 8 captures(none) dereferenceable(103284) %this) local_unnamed_addr #9 align 2 {
entry:
  %m_bodyList = getelementptr inbounds nuw i8, ptr %this, i64 103184
  %body.04 = load ptr, ptr %m_bodyList, align 8
  %tobool.not5 = icmp eq ptr %body.04, null
  br i1 %tobool.not5, label %for.end, label %for.body

for.body:                                         ; preds = %entry, %for.body
  %body.06 = phi ptr [ %body.0, %for.body ], [ %body.04, %entry ]
  %m_force = getelementptr inbounds nuw i8, ptr %body.06, i64 76
  store float 0.000000e+00, ptr %m_force, align 4
  %y.i = getelementptr inbounds nuw i8, ptr %body.06, i64 80
  store float 0.000000e+00, ptr %y.i, align 4
  %m_torque = getelementptr inbounds nuw i8, ptr %body.06, i64 84
  store float 0.000000e+00, ptr %m_torque, align 4
  %m_next.i = getelementptr inbounds nuw i8, ptr %body.06, i64 104
  %body.0 = load ptr, ptr %m_next.i, align 8
  %tobool.not = icmp eq ptr %body.0, null
  br i1 %tobool.not, label %for.end, label %for.body, !llvm.loop !29

for.end:                                          ; preds = %for.body, %entry
  ret void
}